target datalayout = "e-m:e-p270:32:32-p271:32:32-p272:64:64-i64:64-i128:128-f80:128-n8:16:32:64-S128"
target triple = "x86_64-unknown-linux-gnu"

%"struct.cineon::GenericHeader" = type { i32, i32, i32, i32, i32, i32, [8 x i8], [100 x i8], [12 x i8], [12 x i8], [36 x i8], i8, i8, [2 x i8], [8 x %"struct.cineon::ImageElement"], [2 x float], [2 x float], [2 x float], [2 x float], [200 x i8], [28 x i8], i8, i8, i8, i8, i32, i32, [20 x i8], i32, i32, [100 x i8], [12 x i8], [12 x i8], [64 x i8], [32 x i8], [32 x i8], float, float, float, [40 x i8] }
%"struct.cineon::ImageElement" = type { [2 x i8], i8, i8, i32, i32, float, float, float, float }
%"class.OpenImageIO_v2_6_0::basic_string_view" = type { ptr, i64 }
%struct.tm = type { i32, i32, i32, i32, i32, i32, i32, i32, i32, i64, ptr }

@.str.2 = private unnamed_addr constant [20 x i8] c"%Y:%m:%d:%H:%M:%S%Z\00", align 1

; Function Attrs: mustprogress nounwind uwtable
define linkonce_odr noundef i64 @_ZNSt11char_traitsIcE6lengthEPKc(ptr noundef %__s) #1 comdat align 2 {
entry:
  %__s.addr = alloca ptr, align 8
  store ptr %__s, ptr %__s.addr, align 8
  %0 = load ptr, ptr %__s.addr, align 8
  %call = call i64 @strlen(ptr noundef %0) #5
  ret i64 %call
}

; Function Attrs: noreturn nounwind uwtable
define linkonce_odr hidden void @__clang_call_terminate(ptr noundef %0) #8 comdat {
  %2 = call ptr @__cxa_begin_catch(ptr %0) #5
  call void @_ZSt9terminatev() #16
  unreachable
}

; Function Attrs: mustprogress uwtable
define linkonce_odr hidden noundef i64 @_ZN18OpenImageIO_v2_6_017basic_string_viewIcSt11char_traitsIcEE8cestrlenEPKc(ptr noundef %chars) #6 comdat align 2 {
entry:
  %chars.addr = alloca ptr, align 8
  store ptr %chars, ptr %chars.addr, align 8
  %0 = load ptr, ptr %chars.addr, align 8
  %call = call noundef i64 @_ZNSt11char_traitsIcE6lengthEPKc(ptr noundef %0)
  ret i64 %call
}

; Function Attrs: mustprogress nounwind uwtable
define linkonce_odr hidden void @_ZN18OpenImageIO_v2_6_017basic_string_viewIcSt11char_traitsIcEEC2EPKc(ptr noundef nonnull align 8 dereferenceable(16) %this, ptr noundef %chars) unnamed_addr #1 comdat align 2 personality ptr @__gxx_personality_v0 {
entry:
  %this.addr = alloca ptr, align 8
  %chars.addr = alloca ptr, align 8
  store ptr %this, ptr %this.addr, align 8
  store ptr %chars, ptr %chars.addr, align 8
  %this1 = load ptr, ptr %this.addr, align 8
  %m_chars = getelementptr inbounds %"class.OpenImageIO_v2_6_0::basic_string_view", ptr %this1, i32 0, i32 0
  %0 = load ptr, ptr %chars.addr, align 8
  store ptr %0, ptr %m_chars, align 8
  %m_len = getelementptr inbounds %"class.OpenImageIO_v2_6_0::basic_string_view", ptr %this1, i32 0, i32 1
  %1 = load ptr, ptr %chars.addr, align 8
  %tobool = icmp ne ptr %1, null
  br i1 %tobool, label %cond.true, label %cond.false

cond.true:                                        ; preds = %entry
  %2 = load ptr, ptr %chars.addr, align 8
  %call = invoke noundef i64 @_ZN18OpenImageIO_v2_6_017basic_string_viewIcSt11char_traitsIcEE8cestrlenEPKc(ptr noundef %2)
          to label %invoke.cont unwind label %terminate.lpad

invoke.cont:                                      ; preds = %cond.true
  br label %cond.end

cond.false:                                       ; preds = %entry
  br label %cond.end

cond.end:                                         ; preds = %cond.false, %invoke.cont
  %cond = phi i64 [ %call, %invoke.cont ], [ 0, %cond.false ]
  store i64 %cond, ptr %m_len, align 8
  ret void

terminate.lpad:                                   ; preds = %cond.true
  %3 = landingpad { ptr, i32 }
          catch ptr null
  %4 = extractvalue { ptr, i32 } %3, 0
  call void @__clang_call_terminate(ptr %4) #16
  unreachable
}

; Function Attrs: mustprogress uwtable
define hidden void @_ZN6cineon13GenericHeader19SetCreationTimeDateEl(ptr noundef nonnull align 4 dereferenceable(1024) %this, i64 noundef %sec) #6 align 2 {
entry:
  %this.addr = alloca ptr, align 8
  %sec.addr = alloca i64, align 8
  %str = alloca [32 x i8], align 16
  %t = alloca i64, align 8
  %localtm = alloca %struct.tm, align 8
  %agg.tmp = alloca %"class.OpenImageIO_v2_6_0::basic_string_view", align 8
  %agg.tmp6 = alloca %"class.OpenImageIO_v2_6_0::basic_string_view", align 8
  store ptr %this, ptr %this.addr, align 8
  store i64 %sec, ptr %sec.addr, align 8
  %this1 = load ptr, ptr %this.addr, align 8
  %0 = load i64, ptr %sec.addr, align 8
  store i64 %0, ptr %t, align 8
  call void @_ZN18OpenImageIO_v2_6_07Sysutil14get_local_timeEPKlP2tm(ptr noundef %t, ptr noundef %localtm)
  %arraydecay = getelementptr inbounds [32 x i8], ptr %str, i64 0, i64 0
  %call = call i64 @strftime(ptr noundef %arraydecay, i64 noundef 32, ptr noundef @.str.2, ptr noundef %localtm) #5
  %creationDate = getelementptr inbounds %"struct.cineon::GenericHeader", ptr %this1, i32 0, i32 8
  %arraydecay2 = getelementptr inbounds [12 x i8], ptr %creationDate, i64 0, i64 0
  %arraydecay3 = getelementptr inbounds [32 x i8], ptr %str, i64 0, i64 0
  call void @_ZN18OpenImageIO_v2_6_017basic_string_viewIcSt11char_traitsIcEEC2EPKc(ptr noundef nonnull align 8 dereferenceable(16) %agg.tmp, ptr noundef %arraydecay3) #5
  %call4 = call noundef ptr @_ZN18OpenImageIO_v2_6_07Strutil11safe_strcpyEPcNS_17basic_string_viewIcSt11char_traitsIcEEEm(ptr noundef %arraydecay2, ptr noundef %agg.tmp, i64 noundef 11) #5
  %creationTime = getelementptr inbounds %"struct.cineon::GenericHeader", ptr %this1, i32 0, i32 9
  %arraydecay5 = getelementptr inbounds [12 x i8], ptr %creationTime, i64 0, i64 0
  %arraydecay7 = getelementptr inbounds [32 x i8], ptr %str, i64 0, i64 0
  %add.ptr = getelementptr inbounds i8, ptr %arraydecay7, i64 11
  call void @_ZN18OpenImageIO_v2_6_017basic_string_viewIcSt11char_traitsIcEEC2EPKc(ptr noundef nonnull align 8 dereferenceable(16) %agg.tmp6, ptr noundef %add.ptr) #5
  %call8 = call noundef ptr @_ZN18OpenImageIO_v2_6_07Strutil11safe_strcpyEPcNS_17basic_string_viewIcSt11char_traitsIcEEEm(ptr noundef %arraydecay5, ptr noundef %agg.tmp6, i64 noundef 12) #5
  ret void
}